; ModuleID = '44/1128.c'
source_filename = "44/1128.c"
target datalayout = "e-m:e-p270:32:32-p271:32:32-p272:64:64-i64:64-f80:128-n8:16:32:64-S128"
target triple = "x86_64-pc-linux-gnu"

@.str = private unnamed_addr constant [3 x i8] c"%d\00", align 1
@.str.1 = private unnamed_addr constant [4 x i8] c"%d\0A\00", align 1

; Function Attrs: noinline nounwind uwtable
define dso_local void @main() #0 {
  %1 = alloca [6 x i32], align 16
  %2 = alloca [6 x i32], align 16
  %3 = alloca i32, align 4
  %4 = alloca i32, align 4
  %5 = alloca i32, align 4
  %6 = alloca i32, align 4
  %7 = alloca i32, align 4
  %8 = bitcast [6 x i32]* %2 to i8*
  call void @llvm.memset.p0i8.i64(i8* align 16 %8, i8 0, i64 24, i1 false)
  store i32 0, i32* %3, align 4
  br label %9

9:                                                ; preds = %17, %0
  %10 = load i32, i32* %3, align 4
  %11 = icmp slt i32 %10, 6
  br i1 %11, label %12, label %20

12:                                               ; preds = %9
  %13 = load i32, i32* %3, align 4
  %14 = sext i32 %13 to i64
  %15 = getelementptr inbounds [6 x i32], [6 x i32]* %1, i64 0, i64 %14
  %16 = call i32 (i8*, ...) @__isoc99_scanf(i8* getelementptr inbounds ([3 x i8], [3 x i8]* @.str, i64 0, i64 0), i32* %15)
  br label %17

17:                                               ; preds = %12
  %18 = load i32, i32* %3, align 4
  %19 = add nsw i32 %18, 1
  store i32 %19, i32* %3, align 4
  br label %9

20:                                               ; preds = %9
  store i32 0, i32* %3, align 4
  br label %21

21:                                               ; preds = %106, %20
  %22 = load i32, i32* %3, align 4
  %23 = icmp slt i32 %22, 6
  br i1 %23, label %24, label %109

24:                                               ; preds = %21
  %25 = load i32, i32* %3, align 4
  %26 = sext i32 %25 to i64
  %27 = getelementptr inbounds [6 x i32], [6 x i32]* %1, i64 0, i64 %26
  %28 = load i32, i32* %27, align 4
  %29 = icmp slt i32 %28, 0
  br i1 %29, label %30, label %39

30:                                               ; preds = %24
  %31 = load i32, i32* %3, align 4
  %32 = sext i32 %31 to i64
  %33 = getelementptr inbounds [6 x i32], [6 x i32]* %1, i64 0, i64 %32
  %34 = load i32, i32* %33, align 4
  %35 = sub nsw i32 0, %34
  %36 = load i32, i32* %3, align 4
  %37 = sext i32 %36 to i64
  %38 = getelementptr inbounds [6 x i32], [6 x i32]* %1, i64 0, i64 %37
  store i32 %35, i32* %38, align 4
  store i32 1, i32* %5, align 4
  br label %40

39:                                               ; preds = %24
  store i32 0, i32* %5, align 4
  br label %40

40:                                               ; preds = %39, %30
  %41 = load i32, i32* %3, align 4
  %42 = sext i32 %41 to i64
  %43 = getelementptr inbounds [6 x i32], [6 x i32]* %1, i64 0, i64 %42
  %44 = load i32, i32* %43, align 4
  %45 = sitofp i32 %44 to double
  %46 = call double @log(double %45) #4
  %47 = fptosi double %46 to i32
  store i32 %47, i32* %4, align 4
  %48 = load i32, i32* %4, align 4
  store i32 %48, i32* %6, align 4
  br label %49

49:                                               ; preds = %52, %40
  %50 = load i32, i32* %6, align 4
  %51 = icmp sge i32 %50, 0
  br i1 %51, label %52, label %93

52:                                               ; preds = %49
  %53 = load i32, i32* %3, align 4
  %54 = sext i32 %53 to i64
  %55 = getelementptr inbounds [6 x i32], [6 x i32]* %1, i64 0, i64 %54
  %56 = load i32, i32* %55, align 4
  %57 = sitofp i32 %56 to double
  %58 = load i32, i32* %6, align 4
  %59 = sitofp i32 %58 to double
  %60 = call double @pow(double 1.000000e+01, double %59) #4
  %61 = fdiv double %57, %60
  %62 = fptosi double %61 to i32
  store i32 %62, i32* %7, align 4
  %63 = load i32, i32* %7, align 4
  %64 = sitofp i32 %63 to double
  %65 = load i32, i32* %4, align 4
  %66 = load i32, i32* %6, align 4
  %67 = sub nsw i32 %65, %66
  %68 = sitofp i32 %67 to double
  %69 = call double @pow(double 1.000000e+01, double %68) #4
  %70 = fmul double %64, %69
  %71 = load i32, i32* %3, align 4
  %72 = sext i32 %71 to i64
  %73 = getelementptr inbounds [6 x i32], [6 x i32]* %2, i64 0, i64 %72
  %74 = load i32, i32* %73, align 4
  %75 = sitofp i32 %74 to double
  %76 = fadd double %75, %70
  %77 = fptosi double %76 to i32
  store i32 %77, i32* %73, align 4
  %78 = load i32, i32* %7, align 4
  %79 = sitofp i32 %78 to double
  %80 = load i32, i32* %6, align 4
  %81 = sitofp i32 %80 to double
  %82 = call double @pow(double 1.000000e+01, double %81) #4
  %83 = fmul double %79, %82
  %84 = load i32, i32* %3, align 4
  %85 = sext i32 %84 to i64
  %86 = getelementptr inbounds [6 x i32], [6 x i32]* %1, i64 0, i64 %85
  %87 = load i32, i32* %86, align 4
  %88 = sitofp i32 %87 to double
  %89 = fsub double %88, %83
  %90 = fptosi double %89 to i32
  store i32 %90, i32* %86, align 4
  %91 = load i32, i32* %6, align 4
  %92 = add nsw i32 %91, -1
  store i32 %92, i32* %6, align 4
  br label %49

93:                                               ; preds = %49
  %94 = load i32, i32* %5, align 4
  %95 = icmp ne i32 %94, 0
  br i1 %95, label %96, label %105

96:                                               ; preds = %93
  %97 = load i32, i32* %3, align 4
  %98 = sext i32 %97 to i64
  %99 = getelementptr inbounds [6 x i32], [6 x i32]* %2, i64 0, i64 %98
  %100 = load i32, i32* %99, align 4
  %101 = sub nsw i32 0, %100
  %102 = load i32, i32* %3, align 4
  %103 = sext i32 %102 to i64
  %104 = getelementptr inbounds [6 x i32], [6 x i32]* %2, i64 0, i64 %103
  store i32 %101, i32* %104, align 4
  br label %105

105:                                              ; preds = %96, %93
  br label %106

106:                                              ; preds = %105
  %107 = load i32, i32* %3, align 4
  %108 = add nsw i32 %107, 1
  store i32 %108, i32* %3, align 4
  br label %21

109:                                              ; preds = %21
  store i32 0, i32* %3, align 4
  br label %110

110:                                              ; preds = %136, %109
  %111 = load i32, i32* %3, align 4
  %112 = icmp slt i32 %111, 6
  br i1 %112, label %113, label %139

113:                                              ; preds = %110
  br label %114

114:                                              ; preds = %121, %113
  %115 = load i32, i32* %3, align 4
  %116 = sext i32 %115 to i64
  %117 = getelementptr inbounds [6 x i32], [6 x i32]* %2, i64 0, i64 %116
  %118 = load i32, i32* %117, align 4
  %119 = srem i32 %118, 10
  %120 = icmp eq i32 %119, 0
  br i1 %120, label %121, label %130

121:                                              ; preds = %114
  %122 = load i32, i32* %3, align 4
  %123 = sext i32 %122 to i64
  %124 = getelementptr inbounds [6 x i32], [6 x i32]* %2, i64 0, i64 %123
  %125 = load i32, i32* %124, align 4
  %126 = sdiv i32 %125, 10
  %127 = load i32, i32* %3, align 4
  %128 = sext i32 %127 to i64
  %129 = getelementptr inbounds [6 x i32], [6 x i32]* %2, i64 0, i64 %128
  store i32 %126, i32* %129, align 4
  br label %114

130:                                              ; preds = %114
  %131 = load i32, i32* %3, align 4
  %132 = sext i32 %131 to i64
  %133 = getelementptr inbounds [6 x i32], [6 x i32]* %2, i64 0, i64 %132
  %134 = load i32, i32* %133, align 4
  %135 = call i32 (i8*, ...) @printf(i8* getelementptr inbounds ([4 x i8], [4 x i8]* @.str.1, i64 0, i64 0), i32 %134)
  br label %136

136:                                              ; preds = %130
  %137 = load i32, i32* %3, align 4
  %138 = add nsw i32 %137, 1
  store i32 %138, i32* %3, align 4
  br label %110

139:                                              ; preds = %110
  ret void
}

; Function Attrs: argmemonly nounwind willreturn
declare void @llvm.memset.p0i8.i64(i8* nocapture writeonly, i8, i64, i1 immarg) #1

declare dso_local i32 @__isoc99_scanf(i8*, ...) #2

; Function Attrs: nounwind
declare dso_local double @log(double) #3

; Function Attrs: nounwind
declare dso_local double @pow(double, double) #3

declare dso_local i32 @printf(i8*, ...) #2


!llvm.module.flags = !{!0}
!llvm.ident = !{!1}

!0 = !{i32 1, !"wchar_size", i32 4}
!1 = !{!"clang version 10.0.0-4ubuntu1 "}
